target datalayout = "e-m:e-p270:32:32-p271:32:32-p272:64:64-i64:64-i128:128-f80:128-n8:16:32:64-S128"
target triple = "x86_64-pc-linux-gnu"

%struct.MemoryRegion = type { %struct.Object, i8, i8, i8, i8, i8, i8, i8, i8, i8, i8, ptr, ptr, ptr, ptr, ptr, ptr, i32, i128, i64, ptr, i64, i8, i8, i8, i8, ptr, i64, i32, %union.anon, %union.anon.0, %union.anon.1, ptr, i32, ptr, ptr, i8 }
%struct.Object = type { ptr, ptr, ptr, i32, ptr }
%union.anon = type { %struct.QTailQLink }
%struct.QTailQLink = type { ptr, ptr }
%union.anon.0 = type { %struct.QTailQLink }
%union.anon.1 = type { %struct.QTailQLink }
%struct.VFIOPCIDevice = type { %struct.PCIDevice, %struct.VFIODevice, %struct.VFIOINTx, i32, ptr, i64, i32, i64, ptr, i32, ptr, ptr, i32, i32, [6 x %struct.VFIOBAR], ptr, ptr, %struct.PCIHostDeviceAddress, %struct.QemuUUID, %struct.EventNotifier, %struct.EventNotifier, ptr, i32, i32, i32, i32, i32, i32, i32, i32, i32, i32, i32, i8, i8, i8, i8, i8, i8, i8, i8, i8, i8, i8, i8, i8, i8, i32, i8, i8, i8, ptr, %struct.Notifier }
%struct.PCIDevice = type { %struct.DeviceState, i8, i8, ptr, ptr, ptr, ptr, ptr, i32, %struct.PCIReqIDCache, [64 x i8], [7 x %struct.PCIIORegion], %struct.AddressSpace, %struct.MemoryRegion, %struct.MemoryRegion, ptr, ptr, [3 x ptr], i8, i8, i32, i8, i32, ptr, ptr, ptr, ptr, ptr, ptr, %struct.MemoryRegion, %struct.MemoryRegion, %struct.MemoryRegion, ptr, i8, i32, i8, %struct.PCIExpressDevice, ptr, ptr, i32, i8, %struct.MemoryRegion, i32, ptr, ptr, ptr, ptr, i16, %struct.DOECap, ptr, i32, i32 }
%struct.DeviceState = type { %struct.Object, ptr, ptr, i8, i8, i64, i32, i8, ptr, %struct.NamedGPIOListHead, %struct.NamedClockListHead, %struct.BusStateHead, i32, i32, i32, %struct.ResettableState, ptr, %struct.MemReentrancyGuard }
%struct.NamedGPIOListHead = type { ptr }
%struct.NamedClockListHead = type { ptr }
%struct.BusStateHead = type { ptr }
%struct.ResettableState = type { i32, i8, i8 }
%struct.MemReentrancyGuard = type { i8 }
%struct.PCIReqIDCache = type { ptr, i32 }
%struct.PCIIORegion = type { i64, i64, i8, ptr, ptr }
%struct.AddressSpace = type { %struct.rcu_head, ptr, ptr, ptr, i32, i32, ptr, %union.anon.4, %union.anon.5, i64, i64, %struct.QemuMutex, %struct.anon.6 }
%struct.rcu_head = type { ptr, ptr }
%union.anon.4 = type { %struct.QTailQLink }
%union.anon.5 = type { %struct.QTailQLink }
%struct.QemuMutex = type { %union.pthread_mutex_t, i8 }
%union.pthread_mutex_t = type { %struct.__pthread_mutex_s }
%struct.__pthread_mutex_s = type { i32, i32, i32, i32, i32, i16, i16, %struct.__pthread_internal_list }
%struct.__pthread_internal_list = type { ptr, ptr }
%struct.anon.6 = type { ptr }
%struct.PCIExpressDevice = type { i8, i8, i8, i16, %struct.PCIEAERLog, i16, i16, i16, %struct.PCIESriovPF, %struct.PCIESriovVF }
%struct.PCIEAERLog = type { i16, i16, ptr }
%struct.PCIESriovPF = type { i16, [7 x i8], ptr, ptr }
%struct.PCIESriovVF = type { ptr, i16 }
%struct.DOECap = type { ptr, i16, %struct.anon.7, %struct.anon.8, %struct.anon.9, ptr, ptr, i32, i32, i32, ptr, i16, i32 }
%struct.anon.7 = type { i8, i16 }
%struct.anon.8 = type { i8, i8, i8 }
%struct.anon.9 = type { i8, i8, i8, i8 }
%struct.VFIODevice = type { %struct.anon.10, %struct.anon.11, %struct.anon.12, ptr, ptr, ptr, ptr, ptr, i32, i32, i8, i8, i8, i8, i8, i32, i8, ptr, i32, i32, i32, ptr, ptr, i32, i32, i8, i8, i8, ptr, i32, ptr, ptr, %struct.anon.13 }
%struct.anon.10 = type { ptr, ptr }
%struct.anon.11 = type { ptr, ptr }
%struct.anon.12 = type { ptr, ptr }
%struct.anon.13 = type { ptr, ptr }
%struct.VFIOINTx = type { i8, i8, i8, %struct.EventNotifier, %struct.EventNotifier, %struct.PCIINTxRoute, i32, ptr }
%struct.PCIINTxRoute = type { i32, i32 }
%struct.VFIOBAR = type { %struct.VFIORegion, ptr, i64, i8, i8, i8, %struct.anon.14 }
%struct.VFIORegion = type { ptr, i64, ptr, i64, i32, i32, ptr, i8 }
%struct.anon.14 = type { ptr }
%struct.PCIHostDeviceAddress = type { i32, i32, i32, i32 }
%struct.QemuUUID = type { %union.anon.15 }
%union.anon.15 = type { %struct.anon.16 }
%struct.anon.16 = type { i32, i16, i16, i8, i8, [6 x i8] }
%struct.EventNotifier = type { i32, i32, i8 }
%struct.Notifier = type { ptr, %struct.anon.17 }
%struct.anon.17 = type { ptr, ptr }
%struct.timeval = type { i64, i64 }

@.str.7 = private unnamed_addr constant [10 x i8] c"vfio %s: \00", align 1
@.str.11 = private unnamed_addr constant [22 x i8] c"../qemu/hw/vfio/pci.c\00", align 1
@trace_events_enabled_count = external global i32, align 4
@message_with_timestamp = external global i8, align 1
@qemu_loglevel = external global i32, align 4
@__func__.vfio_intx_enable = private unnamed_addr constant [17 x i8] c"vfio_intx_enable\00", align 1
@.str.58 = private unnamed_addr constant [27 x i8] c"event_notifier_init failed\00", align 1
@_TRACE_VFIO_INTX_ENABLE_DSTATE = external global i16, align 2
@.str.61 = private unnamed_addr constant [37 x i8] c"%d@%zu.%06zu:vfio_intx_enable  (%s)\0A\00", align 1
@.str.62 = private unnamed_addr constant [24 x i8] c"vfio_intx_enable  (%s)\0A\00", align 1

; Function Attrs: inlinehint nounwind sspstrong uwtable
define internal zeroext i1 @qemu_loglevel_mask(i32 noundef %0) #3 {
  %2 = alloca i32, align 4
  store i32 %0, ptr %2, align 4
  %3 = load i32, ptr @qemu_loglevel, align 4
  %4 = load i32, ptr %2, align 4
  %5 = and i32 %3, %4
  %6 = icmp ne i32 %5, 0
  ret i1 %6
}

; Function Attrs: inlinehint nounwind sspstrong uwtable
define internal void @_nocheck__trace_vfio_intx_enable(ptr noundef %0) #3 {
  %2 = alloca ptr, align 8
  %3 = alloca %struct.timeval, align 8
  store ptr %0, ptr %2, align 8
  %4 = load i32, ptr @trace_events_enabled_count, align 4
  %5 = icmp ne i32 %4, 0
  %6 = xor i1 %5, true
  %7 = xor i1 %6, true
  %8 = zext i1 %7 to i32
  %9 = sext i32 %8 to i64
  %10 = call i64 @llvm.expect.i64(i64 %9, i64 0)
  %11 = icmp ne i64 %10, 0
  br i1 %11, label %12, label %32

12:                                               ; preds = %1
  %13 = load i16, ptr @_TRACE_VFIO_INTX_ENABLE_DSTATE, align 2
  %14 = zext i16 %13 to i32
  %15 = icmp ne i32 %14, 0
  br i1 %15, label %16, label %32

16:                                               ; preds = %12
  %17 = call zeroext i1 @qemu_loglevel_mask(i32 noundef 32768)
  br i1 %17, label %18, label %32

18:                                               ; preds = %16
  %19 = load i8, ptr @message_with_timestamp, align 1, !range !9, !noundef !10
  %20 = trunc i8 %19 to i1
  br i1 %20, label %21, label %29

21:                                               ; preds = %18
  call void @llvm.lifetime.start.p0(i64 16, ptr %3) #19
  call void @llvm.memset.p0.i64(ptr align 8 %3, i8 0, i64 16, i1 false), !annotation !4
  %22 = call i32 @gettimeofday(ptr noundef %3, ptr noundef null) #19
  %23 = call i32 @qemu_get_thread_id()
  %24 = getelementptr inbounds nuw %struct.timeval, ptr %3, i32 0, i32 0
  %25 = load i64, ptr %24, align 8
  %26 = getelementptr inbounds nuw %struct.timeval, ptr %3, i32 0, i32 1
  %27 = load i64, ptr %26, align 8
  %28 = load ptr, ptr %2, align 8
  call void (ptr, ...) @qemu_log(ptr noundef @.str.61, i32 noundef %23, i64 noundef %25, i64 noundef %27, ptr noundef %28)
  call void @llvm.lifetime.end.p0(i64 16, ptr %3) #19
  br label %31

29:                                               ; preds = %18
  %30 = load ptr, ptr %2, align 8
  call void (ptr, ...) @qemu_log(ptr noundef @.str.62, ptr noundef %30)
  br label %31

31:                                               ; preds = %29, %21
  br label %32

32:                                               ; preds = %31, %16, %12, %1
  ret void
}

; Function Attrs: inlinehint nounwind sspstrong uwtable
define internal void @pci_set_byte(ptr noundef %0, i8 noundef zeroext %1) #3 {
  %3 = alloca ptr, align 8
  %4 = alloca i8, align 1
  store ptr %0, ptr %3, align 8
  store i8 %1, ptr %4, align 1
  %5 = load i8, ptr %4, align 1
  %6 = load ptr, ptr %3, align 8
  store i8 %5, ptr %6, align 1
  ret void
}

; Function Attrs: inlinehint nounwind sspstrong uwtable
define internal void @trace_vfio_intx_enable(ptr noundef %0) #3 {
  %2 = alloca ptr, align 8
  store ptr %0, ptr %2, align 8
  %3 = load ptr, ptr %2, align 8
  call void @_nocheck__trace_vfio_intx_enable(ptr noundef %3)
  ret void
}

; Function Attrs: nounwind sspstrong uwtable
define internal zeroext i1 @vfio_intx_enable_kvm(ptr noundef %0, ptr noundef %1) #0 {
  %3 = alloca ptr, align 8
  %4 = alloca ptr, align 8
  store ptr %0, ptr %3, align 8
  store ptr %1, ptr %4, align 8
  ret i1 true
}

; Function Attrs: inlinehint nounwind sspstrong uwtable
define internal void @pci_config_set_interrupt_pin(ptr noundef %0, i8 noundef zeroext %1) #3 {
  %3 = alloca ptr, align 8
  %4 = alloca i8, align 1
  store ptr %0, ptr %3, align 8
  store i8 %1, ptr %4, align 1
  %5 = load ptr, ptr %3, align 8
  %6 = getelementptr inbounds i8, ptr %5, i64 61
  %7 = load i8, ptr %4, align 1
  call void @pci_set_byte(ptr noundef %6, i8 noundef zeroext %7)
  ret void
}

; Function Attrs: nounwind sspstrong uwtable
define internal zeroext i1 @vfio_intx_enable(ptr noundef %0, ptr noundef %1) #0 {
  %3 = alloca i1, align 1
  %4 = alloca ptr, align 8
  %5 = alloca ptr, align 8
  %6 = alloca i8, align 1
  %7 = alloca ptr, align 8
  %8 = alloca i32, align 4
  %9 = alloca i32, align 4
  %10 = alloca i32, align 4
  store ptr %0, ptr %4, align 8
  store ptr %1, ptr %5, align 8
  call void @llvm.lifetime.start.p0(i64 1, ptr %6) #19
  %11 = load ptr, ptr %4, align 8
  %12 = getelementptr inbounds nuw %struct.VFIOPCIDevice, ptr %11, i32 0, i32 0
  %13 = call i32 @vfio_pci_read_config(ptr noundef %12, i32 noundef 61, i32 noundef 1)
  %14 = trunc i32 %13 to i8
  store i8 %14, ptr %6, align 1
  call void @llvm.lifetime.start.p0(i64 8, ptr %7) #19
  store ptr null, ptr %7, align 8
  call void @llvm.lifetime.start.p0(i64 4, ptr %8) #19
  store i32 0, ptr %8, align 4, !annotation !4
  call void @llvm.lifetime.start.p0(i64 4, ptr %9) #19
  store i32 0, ptr %9, align 4, !annotation !4
  %15 = load i8, ptr %6, align 1
  %16 = icmp ne i8 %15, 0
  br i1 %16, label %18, label %17

17:                                               ; preds = %2
  store i1 true, ptr %3, align 1
  store i32 1, ptr %10, align 4
  br label %76

18:                                               ; preds = %2
  %19 = load ptr, ptr %4, align 8
  call void @vfio_disable_interrupts(ptr noundef %19)
  %20 = load i8, ptr %6, align 1
  %21 = zext i8 %20 to i32
  %22 = sub i32 %21, 1
  %23 = trunc i32 %22 to i8
  %24 = load ptr, ptr %4, align 8
  %25 = getelementptr inbounds nuw %struct.VFIOPCIDevice, ptr %24, i32 0, i32 2
  %26 = getelementptr inbounds nuw %struct.VFIOINTx, ptr %25, i32 0, i32 2
  store i8 %23, ptr %26, align 2
  %27 = load ptr, ptr %4, align 8
  %28 = getelementptr inbounds nuw %struct.VFIOPCIDevice, ptr %27, i32 0, i32 0
  %29 = getelementptr inbounds nuw %struct.PCIDevice, ptr %28, i32 0, i32 3
  %30 = load ptr, ptr %29, align 16
  %31 = load i8, ptr %6, align 1
  call void @pci_config_set_interrupt_pin(ptr noundef %30, i8 noundef zeroext %31)
  %32 = load ptr, ptr %4, align 8
  %33 = getelementptr inbounds nuw %struct.VFIOPCIDevice, ptr %32, i32 0, i32 2
  %34 = getelementptr inbounds nuw %struct.VFIOINTx, ptr %33, i32 0, i32 3
  %35 = call i32 @event_notifier_init(ptr noundef %34, i32 noundef 0)
  store i32 %35, ptr %9, align 4
  %36 = load i32, ptr %9, align 4
  %37 = icmp ne i32 %36, 0
  br i1 %37, label %38, label %42

38:                                               ; preds = %18
  %39 = load ptr, ptr %5, align 8
  %40 = load i32, ptr %9, align 4
  %41 = sub i32 0, %40
  call void (ptr, ptr, i32, ptr, i32, ptr, ...) @error_setg_errno_internal(ptr noundef %39, ptr noundef @.str.11, i32 noundef 294, ptr noundef @__func__.vfio_intx_enable, i32 noundef %41, ptr noundef @.str.58)
  store i1 false, ptr %3, align 1
  store i32 1, ptr %10, align 4
  br label %76

42:                                               ; preds = %18
  %43 = load ptr, ptr %4, align 8
  %44 = getelementptr inbounds nuw %struct.VFIOPCIDevice, ptr %43, i32 0, i32 2
  %45 = getelementptr inbounds nuw %struct.VFIOINTx, ptr %44, i32 0, i32 3
  %46 = call i32 @event_notifier_get_fd(ptr noundef %45)
  store i32 %46, ptr %8, align 4
  %47 = load i32, ptr %8, align 4
  %48 = load ptr, ptr %4, align 8
  call void @qemu_set_fd_handler(i32 noundef %47, ptr noundef @vfio_intx_interrupt, ptr noundef null, ptr noundef %48)
  %49 = load ptr, ptr %4, align 8
  %50 = getelementptr inbounds nuw %struct.VFIOPCIDevice, ptr %49, i32 0, i32 1
  %51 = load i32, ptr %8, align 4
  %52 = load ptr, ptr %5, align 8
  %53 = call zeroext i1 @vfio_set_irq_signaling(ptr noundef %50, i32 noundef 0, i32 noundef 0, i32 noundef 32, i32 noundef %51, ptr noundef %52)
  br i1 %53, label %60, label %54

54:                                               ; preds = %42
  %55 = load i32, ptr %8, align 4
  %56 = load ptr, ptr %4, align 8
  call void @qemu_set_fd_handler(i32 noundef %55, ptr noundef null, ptr noundef null, ptr noundef %56)
  %57 = load ptr, ptr %4, align 8
  %58 = getelementptr inbounds nuw %struct.VFIOPCIDevice, ptr %57, i32 0, i32 2
  %59 = getelementptr inbounds nuw %struct.VFIOINTx, ptr %58, i32 0, i32 3
  call void @event_notifier_cleanup(ptr noundef %59)
  store i1 false, ptr %3, align 1
  store i32 1, ptr %10, align 4
  br label %76

60:                                               ; preds = %42
  %61 = load ptr, ptr %4, align 8
  %62 = call zeroext i1 @vfio_intx_enable_kvm(ptr noundef %61, ptr noundef %7)
  br i1 %62, label %69, label %63

63:                                               ; preds = %60
  %64 = load ptr, ptr %7, align 8
  %65 = load ptr, ptr %4, align 8
  %66 = getelementptr inbounds nuw %struct.VFIOPCIDevice, ptr %65, i32 0, i32 1
  %67 = getelementptr inbounds nuw %struct.VFIODevice, ptr %66, i32 0, i32 6
  %68 = load ptr, ptr %67, align 8
  call void (ptr, ptr, ...) @warn_reportf_err(ptr noundef %64, ptr noundef @.str.7, ptr noundef %68)
  br label %69

69:                                               ; preds = %63, %60
  %70 = load ptr, ptr %4, align 8
  %71 = getelementptr inbounds nuw %struct.VFIOPCIDevice, ptr %70, i32 0, i32 13
  store i32 1, ptr %71, align 4
  %72 = load ptr, ptr %4, align 8
  %73 = getelementptr inbounds nuw %struct.VFIOPCIDevice, ptr %72, i32 0, i32 1
  %74 = getelementptr inbounds nuw %struct.VFIODevice, ptr %73, i32 0, i32 6
  %75 = load ptr, ptr %74, align 8
  call void @trace_vfio_intx_enable(ptr noundef %75)
  store i1 true, ptr %3, align 1
  store i32 1, ptr %10, align 4
  br label %76

76:                                               ; preds = %69, %54, %38, %17
  call void @llvm.lifetime.end.p0(i64 4, ptr %9) #19
  call void @llvm.lifetime.end.p0(i64 4, ptr %8) #19
  call void @llvm.lifetime.end.p0(i64 8, ptr %7) #19
  call void @llvm.lifetime.end.p0(i64 1, ptr %6) #19
  %77 = load i1, ptr %3, align 1
  ret i1 %77
}