; Function Attrs: nounwind sspstrong uwtable
define internal fastcc noundef zeroext i1 @vfio_intx_enable(ptr noundef %0, ptr noundef %1) unnamed_addr #0 {
  %3 = alloca %struct.timeval, align 8
  %4 = tail call i32 @vfio_pci_read_config(ptr noundef %0, i32 noundef 61, i32 noundef 1)
  %5 = trunc i32 %4 to i8
  %.not = icmp eq i8 %5, 0
  br i1 %.not, label %trace_vfio_intx_enable.exit, label %6

6:                                                ; preds = %2
  tail call fastcc void @vfio_disable_interrupts(ptr noundef %0)
  %7 = add i8 %5, -1
  %8 = getelementptr inbounds nuw i8, ptr %0, i64 2970
  store i8 %7, ptr %8, align 2
  %9 = getelementptr inbounds nuw i8, ptr %0, i64 160
  %10 = load ptr, ptr %9, align 16
  %11 = getelementptr inbounds nuw i8, ptr %10, i64 61
  store i8 %5, ptr %11, align 1
  %12 = getelementptr inbounds nuw i8, ptr %0, i64 2972
  %13 = tail call i32 @event_notifier_init(ptr noundef nonnull %12, i32 noundef 0) #26
  %.not26 = icmp eq i32 %13, 0
  br i1 %.not26, label %16, label %14

14:                                               ; preds = %6
  %15 = sub i32 0, %13
  tail call void (ptr, ptr, i32, ptr, i32, ptr, ...) @error_setg_errno_internal(ptr noundef %1, ptr noundef nonnull @.str.11, i32 noundef 294, ptr noundef nonnull @__func__.vfio_intx_enable, i32 noundef %15, ptr noundef nonnull @.str.58) #26
  br label %trace_vfio_intx_enable.exit

16:                                               ; preds = %6
  %17 = tail call i32 @event_notifier_get_fd(ptr noundef nonnull %12) #26
  tail call void @qemu_set_fd_handler(i32 noundef %17, ptr noundef nonnull @vfio_intx_interrupt, ptr noundef null, ptr noundef nonnull %0) #26
  %18 = getelementptr inbounds nuw i8, ptr %0, i64 2752
  %19 = tail call zeroext i1 @vfio_set_irq_signaling(ptr noundef nonnull %18, i32 noundef 0, i32 noundef 0, i32 noundef 32, i32 noundef %17, ptr noundef %1) #26
  br i1 %19, label %21, label %20

20:                                               ; preds = %16
  tail call void @qemu_set_fd_handler(i32 noundef %17, ptr noundef null, ptr noundef null, ptr noundef nonnull %0) #26
  tail call void @event_notifier_cleanup(ptr noundef nonnull %12) #26
  br label %trace_vfio_intx_enable.exit

21:                                               ; preds = %16
  %22 = getelementptr inbounds nuw i8, ptr %0, i64 3092
  store i32 1, ptr %22, align 4
  %23 = getelementptr inbounds nuw i8, ptr %0, i64 2824
  %24 = load ptr, ptr %23, align 8
  %25 = load i32, ptr @trace_events_enabled_count, align 4
  %.not.i.i = icmp eq i32 %25, 0
  br i1 %.not.i.i, label %trace_vfio_intx_enable.exit, label %26, !prof !5

26:                                               ; preds = %21
  %27 = load i16, ptr @_TRACE_VFIO_INTX_ENABLE_DSTATE, align 2
  %.not2.i.i = icmp eq i16 %27, 0
  br i1 %.not2.i.i, label %trace_vfio_intx_enable.exit, label %28

28:                                               ; preds = %26
  %29 = load i32, ptr @qemu_loglevel, align 4
  %30 = and i32 %29, 32768
  %.not3.i.i = icmp eq i32 %30, 0
  br i1 %.not3.i.i, label %trace_vfio_intx_enable.exit, label %31

31:                                               ; preds = %28
  %32 = load i8, ptr @message_with_timestamp, align 1, !range !6, !noundef !7
  %33 = trunc nuw i8 %32 to i1
  br i1 %33, label %34, label %40

34:                                               ; preds = %31
  call void @llvm.lifetime.start.p0(i64 16, ptr nonnull %3) #26
  call void @llvm.memset.p0.i64(ptr noundef nonnull align 8 dereferenceable(16) %3, i8 0, i64 16, i1 false), !annotation !4
  %35 = call i32 @gettimeofday(ptr noundef nonnull %3, ptr noundef null) #26
  %36 = tail call i32 @qemu_get_thread_id() #26
  %37 = load i64, ptr %3, align 8
  %38 = getelementptr inbounds nuw i8, ptr %3, i64 8
  %39 = load i64, ptr %38, align 8
  tail call void (ptr, ...) @qemu_log(ptr noundef nonnull @.str.61, i32 noundef %36, i64 noundef %37, i64 noundef %39, ptr noundef %24) #26
  call void @llvm.lifetime.end.p0(i64 16, ptr nonnull %3) #26
  br label %trace_vfio_intx_enable.exit

40:                                               ; preds = %31
  tail call void (ptr, ...) @qemu_log(ptr noundef nonnull @.str.62, ptr noundef %24) #26
  br label %trace_vfio_intx_enable.exit

trace_vfio_intx_enable.exit:                      ; preds = %40, %34, %28, %26, %21, %2, %20, %14
  %.0 = phi i1 [ false, %14 ], [ false, %20 ], [ true, %2 ], [ true, %21 ], [ true, %26 ], [ true, %28 ], [ true, %34 ], [ true, %40 ]
  ret i1 %.0
}